(dp1
I1
(I0
I16
tp2
sI2
(I16
I36
tp3
sI3
(I36
I50
tp4
sI4
(I50
I77
tp5
sI5
(I77
I107
tp6
sI6
(I107
I122
tp7
sI7
(I122
I152
tp8
sI8
(I152
I191
tp9
sI9
(I191
I226
tp10
sI10
(I226
I252
tp11
sI11
(I252
I274
tp12
sI12
(I274
I299
tp13
sI13
(I299
I305
tp14
sI14
(I305
I330
tp15
sI15
(I330
I343
tp16
sI16
(I343
I378
tp17
sI17
(I378
I396
tp18
sI18
(I396
I411
tp19
sI19
(I411
I418
tp20
sI20
(I418
I429
tp21
sI21
(I429
I449
tp22
sI22
(I449
I451
tp23
sI23
(I451
I481
tp24
sI24
(I481
I520
tp25
sI25
(I520
I536
tp26
sI26
(I536
I558
tp27
sI27
(I558
I565
tp28
sI28
(I565
I593
tp29
sI29
(I593
I616
tp30
sI30
(I616
I631
tp31
sI31
(I631
I665
tp32
sI32
(I665
I701
tp33
sI33
(I701
I713
tp34
sI34
(I713
I739
tp35
sI35
(I739
I772
tp36
sI36
(I772
I796
tp37
sI37
(I796
I827
tp38
sI38
(I827
I844
tp39
sI39
(I844
I866
tp40
sI40
(I866
I881
tp41
sI41
(I881
I884
tp42
sI42
(I884
I898
tp43
sI43
(I898
I906
tp44
sI44
(I906
I934
tp45
sI45
(I934
I954
tp46
sI46
(I954
I965
tp47
sI47
(I965
I983
tp48
sI48
(I983
I1016
tp49
sI49
(I1016
I1043
tp50
sI50
(I1043
I1047
tp51
sI51
(I1047
I1059
tp52
sI52
(I1059
I1074
tp53
sI53
(I1074
I1101
tp54
sI54
(I1101
I1131
tp55
sI55
(I1131
I1142
tp56
sI56
(I1142
I1164
tp57
sI57
(I1164
I1187
tp58
sI58
(I1187
I1201
tp59
sI59
(I1201
I1223
tp60
sI60
(I1223
I1229
tp61
sI61
(I1229
I1252
tp62
sI62
(I1252
I1266
tp63
sI63
(I1266
I1283
tp64
sI64
(I1283
I1289
tp65
sI65
(I1289
I1313
tp66
sI66
(I1313
I1338
tp67
sI67
(I1338
I1358
tp68
sI68
(I1358
I1391
tp69
sI69
(I1391
I1409
tp70
sI70
(I1409
I1437
tp71
sI71
(I1437
I1458
tp72
sI72
(I1458
I1483
tp73
sI73
(I1483
I1504
tp74
sI74
(I1504
I1533
tp75
sI75
(I1533
I1554
tp76
sI76
(I1554
I1573
tp77
sI77
(I1573
I1620
tp78
sI78
(I1620
I1652
tp79
sI79
(I1652
I1670
tp80
sI80
(I1670
I1691
tp81
sI81
(I1691
I1707
tp82
sI82
(I1707
I1730
tp83
sI83
(I1730
I1739
tp84
sI84
(I1739
I1750
tp85
sI85
(I1750
I1781
tp86
sI86
(I1781
I1809
tp87
sI87
(I1809
I1848
tp88
sI88
(I1848
I1867
tp89
sI89
(I1867
I1896
tp90
sI90
(I1896
I1905
tp91
sI91
(I1905
I1920
tp92
sI92
(I1920
I1970
tp93
sI93
(I1970
I1992
tp94
sI94
(I1992
I2017
tp95
sI95
(I2017
I2053
tp96
sI96
(I2053
I2068
tp97
sI97
(I2068
I2089
tp98
sI98
(I2089
I2123
tp99
sI99
(I2123
I2143
tp100
sI100
(I2143
I2160
tp101
sI101
(I2160
I2200
tp102
sI102
(I2200
I2226
tp103
sI103
(I2226
I2244
tp104
sI104
(I2244
I2265
tp105
sI105
(I2265
I2299
tp106
sI106
(I2299
I2329
tp107
sI107
(I2329
I2379
tp108
sI108
(I2379
I2400
tp109
sI109
(I2400
I2424
tp110
sI110
(I2424
I2437
tp111
sI111
(I2437
I2473
tp112
sI112
(I2473
I2502
tp113
sI113
(I2502
I2530
tp114
sI114
(I2530
I2554
tp115
sI115
(I2554
I2583
tp116
sI116
(I2583
I2587
tp117
sI117
(I2587
I2612
tp118
sI118
(I2612
I2640
tp119
sI119
(I2640
I2677
tp120
sI120
(I2677
I2697
tp121
sI121
(I2697
I2714
tp122
sI122
(I2714
I2743
tp123
sI123
(I2743
I2772
tp124
sI124
(I2772
I2781
tp125
sI125
(I2781
I2782
tp126
sI126
(I2782
I2792
tp127
sI127
(I2792
I2815
tp128
sI128
(I2815
I2845
tp129
sI129
(I2845
I2870
tp130
sI130
(I2870
I2909
tp131
sI131
(I2909
I2933
tp132
sI132
(I2933
I2958
tp133
sI133
(I2958
I3002
tp134
sI134
(I3002
I3026
tp135
sI135
(I3026
I3037
tp136
sI136
(I3037
I3078
tp137
sI137
(I3078
I3086
tp138
sI138
(I3086
I3110
tp139
sI139
(I3110
I3122
tp140
sI140
(I3122
I3152
tp141
sI141
(I3152
I3185
tp142
sI142
(I3185
I3209
tp143
sI143
(I3209
I3228
tp144
sI144
(I3228
I3259
tp145
sI145
(I3259
I3283
tp146
sI146
(I3283
I3286
tp147
sI147
(I3286
I3325
tp148
sI148
(I3325
I3342
tp149
sI149
(I3342
I3362
tp150
sI150
(I3362
I3386
tp151
sI151
(I3386
I3393
tp152
sI152
(I3393
I3404
tp153
sI153
(I3404
I3432
tp154
sI154
(I3432
I3465
tp155
sI155
(I3465
I3493
tp156
sI156
(I3493
I3522
tp157
sI157
(I3522
I3551
tp158
sI158
(I3551
I3577
tp159
sI159
(I3577
I3614
tp160
sI160
(I3614
I3635
tp161
sI161
(I3635
I3665
tp162
sI162
(I3665
I3694
tp163
sI163
(I3694
I3716
tp164
sI164
(I3716
I3725
tp165
sI165
(I3725
I3755
tp166
sI166
(I3755
I3788
tp167
sI167
(I3788
I3808
tp168
sI168
(I3808
I3824
tp169
sI169
(I3824
I3834
tp170
sI170
(I3834
I3855
tp171
sI171
(I3855
I3860
tp172
sI172
(I3860
I3866
tp173
sI173
(I3866
I3878
tp174
sI174
(I3878
I3903
tp175
sI175
(I3903
I3923
tp176
sI176
(I3923
I3943
tp177
sI177
(I3943
I3966
tp178
sI178
(I3966
I3986
tp179
sI179
(I3986
I4009
tp180
sI180
(I4009
I4039
tp181
sI181
(I4039
I4068
tp182
sI182
(I4068
I4085
tp183
sI183
(I4085
I4111
tp184
sI184
(I4111
I4127
tp185
sI185
(I4127
I4155
tp186
sI186
(I4155
I4177
tp187
sI187
(I4177
I4180
tp188
sI188
(I4180
I4203
tp189
sI189
(I4203
I4223
tp190
sI190
(I4223
I4246
tp191
sI191
(I4246
I4262
tp192
sI192
(I4262
I4301
tp193
sI193
(I4301
I4330
tp194
sI194
(I4330
I4364
tp195
sI195
(I4364
I4373
tp196
sI196
(I4373
I4401
tp197
sI197
(I4401
I4426
tp198
sI198
(I4426
I4449
tp199
sI199
(I4449
I4488
tp200
sI200
(I4488
I4515
tp201
sI201
(I4515
I4542
tp202
sI202
(I4542
I4570
tp203
sI203
(I4570
I4597
tp204
sI204
(I4597
I4630
tp205
sI205
(I4630
I4677
tp206
sI206
(I4677
I4702
tp207
sI207
(I4702
I4727
tp208
sI208
(I4727
I4737
tp209
sI209
(I4737
I4745
tp210
sI210
(I4745
I4771
tp211
sI211
(I4771
I4783
tp212
sI212
(I4783
I4803
tp213
sI213
(I4803
I4823
tp214
sI214
(I4823
I4837
tp215
sI215
(I4837
I4865
tp216
sI216
(I4865
I4885
tp217
sI217
(I4885
I4924
tp218
sI218
(I4924
I4950
tp219
sI219
(I4950
I4973
tp220
sI220
(I4973
I5014
tp221
sI221
(I5014
I5033
tp222
sI222
(I5033
I5060
tp223
sI223
(I5060
I5074
tp224
sI224
(I5074
I5094
tp225
sI225
(I5094
I5137
tp226
sI226
(I5137
I5156
tp227
sI227
(I5156
I5183
tp228
sI228
(I5183
I5194
tp229
sI229
(I5194
I5218
tp230
sI230
(I5218
I5249
tp231
sI231
(I5249
I5272
tp232
sI232
(I5272
I5308
tp233
sI233
(I5308
I5317
tp234
sI234
(I5317
I5349
tp235
sI235
(I5349
I5368
tp236
sI236
(I5368
I5378
tp237
sI237
(I5378
I5395
tp238
sI238
(I5395
I5408
tp239
sI239
(I5408
I5429
tp240
sI240
(I5429
I5448
tp241
sI241
(I5448
I5460
tp242
sI242
(I5460
I5491
tp243
sI243
(I5491
I5525
tp244
sI244
(I5525
I5540
tp245
sI245
(I5540
I5547
tp246
sI246
(I5547
I5591
tp247
sI247
(I5591
I5619
tp248
sI248
(I5619
I5659
tp249
sI249
(I5659
I5682
tp250
sI250
(I5682
I5706
tp251
sI251
(I5706
I5733
tp252
sI252
(I5733
I5759
tp253
sI253
(I5759
I5773
tp254
sI254
(I5773
I5804
tp255
sI255
(I5804
I5827
tp256
sI256
(I5827
I5842
tp257
sI257
(I5842
I5862
tp258
sI258
(I5862
I5888
tp259
sI259
(I5888
I5915
tp260
sI260
(I5915
I5945
tp261
sI261
(I5945
I5975
tp262
sI262
(I5975
I5987
tp263
sI263
(I5987
I6017
tp264
sI264
(I6017
I6035
tp265
sI265
(I6035
I6071
tp266
sI266
(I6071
I6096
tp267
sI267
(I6096
I6119
tp268
sI268
(I6119
I6136
tp269
sI269
(I6136
I6157
tp270
sI270
(I6157
I6183
tp271
sI271
(I6183
I6203
tp272
sI272
(I6203
I6242
tp273
sI273
(I6242
I6253
tp274
sI274
(I6253
I6280
tp275
sI275
(I6280
I6307
tp276
sI276
(I6307
I6324
tp277
sI277
(I6324
I6347
tp278
sI278
(I6347
I6369
tp279
sI279
(I6369
I6403
tp280
sI280
(I6403
I6437
tp281
sI281
(I6437
I6453
tp282
sI282
(I6453
I6473
tp283
sI283
(I6473
I6484
tp284
sI284
(I6484
I6499
tp285
sI285
(I6499
I6528
tp286
sI286
(I6528
I6532
tp287
sI287
(I6532
I6564
tp288
sI288
(I6564
I6590
tp289
sI289
(I6590
I6611
tp290
sI290
(I6611
I6640
tp291
sI291
(I6640
I6672
tp292
sI292
(I6672
I6708
tp293
sI293
(I6708
I6725
tp294
sI294
(I6725
I6751
tp295
sI295
(I6751
I6776
tp296
sI296
(I6776
I6799
tp297
sI297
(I6799
I6828
tp298
sI298
(I6828
I6854
tp299
sI299
(I6854
I6875
tp300
sI300
(I6875
I6913
tp301
sI301
(I6913
I6942
tp302
sI302
(I6942
I6987
tp303
sI303
(I6987
I7015
tp304
sI304
(I7015
I7041
tp305
sI305
(I7041
I7067
tp306
sI306
(I7067
I7098
tp307
sI307
(I7098
I7124
tp308
sI308
(I7124
I7126
tp309
sI309
(I7126
I7143
tp310
sI310
(I7143
I7160
tp311
sI311
(I7160
I7187
tp312
sI312
(I7187
I7207
tp313
sI314
(I7207
I7228
tp314
sI315
(I7228
I7250
tp315
sI316
(I7250
I7279
tp316
sI317
(I7279
I7312
tp317
sI318
(I7312
I7333
tp318
sI319
(I7333
I7362
tp319
sI320
(I7362
I7374
tp320
sI321
(I7374
I7403
tp321
sI322
(I7403
I7419
tp322
sI323
(I7419
I7446
tp323
sI324
(I7446
I7466
tp324
sI325
(I7466
I7484
tp325
sI326
(I7484
I7525
tp326
sI327
(I7525
I7551
tp327
sI328
(I7551
I7581
tp328
sI329
(I7581
I7599
tp329
sI330
(I7599
I7635
tp330
sI331
(I7635
I7669
tp331
sI332
(I7669
I7689
tp332
sI333
(I7689
I7719
tp333
sI334
(I7719
I7764
tp334
sI335
(I7764
I7780
tp335
sI336
(I7780
I7816
tp336
sI337
(I7816
I7840
tp337
sI338
(I7840
I7849
tp338
sI339
(I7849
I7873
tp339
sI340
(I7873
I7902
tp340
sI341
(I7902
I7917
tp341
sI342
(I7917
I7944
tp342
sI343
(I7944
I7971
tp343
sI345
(I7971
I7989
tp344
sI346
(I7989
I8021
tp345
sI347
(I8021
I8033
tp346
sI348
(I8033
I8048
tp347
sI349
(I8048
I8063
tp348
sI350
(I8063
I8090
tp349
sI351
(I8090
I8123
tp350
sI352
(I8123
I8134
tp351
sI353
(I8134
I8144
tp352
sI354
(I8144
I8164
tp353
sI355
(I8164
I8177
tp354
sI356
(I8177
I8199
tp355
sI357
(I8199
I8216
tp356
sI358
(I8216
I8224
tp357
sI359
(I8224
I8225
tp358
sI360
(I8225
I8236
tp359
sI361
(I8236
I8280
tp360
sI362
(I8280
I8308
tp361
sI363
(I8308
I8318
tp362
sI364
(I8318
I8350
tp363
sI365
(I8350
I8378
tp364
sI366
(I8378
I8402
tp365
sI367
(I8402
I8419
tp366
sI368
(I8419
I8440
tp367
sI369
(I8440
I8458
tp368
sI370
(I8458
I8491
tp369
sI371
(I8491
I8515
tp370
sI372
(I8515
I8548
tp371
sI373
(I8548
I8567
tp372
sI374
(I8567
I8576
tp373
sI375
(I8576
I8581
tp374
sI376
(I8581
I8598
tp375
sI377
(I8598
I8628
tp376
sI378
(I8628
I8659
tp377
sI379
(I8659
I8687
tp378
sI380
(I8687
I8705
tp379
sI381
(I8705
I8741
tp380
sI382
(I8741
I8762
tp381
sI383
(I8762
I8792
tp382
sI384
(I8792
I8807
tp383
sI385
(I8807
I8844
tp384
sI386
(I8844
I8868
tp385
sI387
(I8868
I8887
tp386
sI388
(I8887
I8905
tp387
sI389
(I8905
I8925
tp388
sI390
(I8925
I8947
tp389
sI391
(I8947
I8980
tp390
sI392
(I8980
I9008
tp391
sI393
(I9008
I9032
tp392
sI394
(I9032
I9045
tp393
sI395
(I9045
I9055
tp394
sI396
(I9055
I9068
tp395
sI397
(I9068
I9104
tp396
sI398
(I9104
I9124
tp397
sI399
(I9124
I9144
tp398
sI400
(I9144
I9166
tp399
sI401
(I9166
I9174
tp400
sI402
(I9174
I9195
tp401
sI403
(I9195
I9227
tp402
sI404
(I9227
I9246
tp403
sI405
(I9246
I9283
tp404
sI406
(I9283
I9296
tp405
sI407
(I9296
I9325
tp406
sI408
(I9325
I9341
tp407
sI409
(I9341
I9357
tp408
sI410
(I9357
I9373
tp409
sI411
(I9373
I9401
tp410
sI412
(I9401
I9434
tp411
sI413
(I9434
I9457
tp412
sI414
(I9457
I9480
tp413
sI415
(I9480
I9504
tp414
sI416
(I9504
I9518
tp415
sI417
(I9518
I9528
tp416
sI418
(I9528
I9562
tp417
sI419
(I9562
I9582
tp418
sI420
(I9582
I9599
tp419
sI421
(I9599
I9610
tp420
sI422
(I9610
I9622
tp421
sI423
(I9622
I9651
tp422
sI424
(I9651
I9682
tp423
sI425
(I9682
I9706
tp424
sI426
(I9706
I9728
tp425
sI427
(I9728
I9765
tp426
sI428
(I9765
I9776
tp427
sI429
(I9776
I9807
tp428
sI430
(I9807
I9850
tp429
sI431
(I9850
I9879
tp430
sI432
(I9879
I9905
tp431
sI433
(I9905
I9940
tp432
sI434
(I9940
I9952
tp433
sI435
(I9952
I9984
tp434
sI436
(I9984
I10008
tp435
sI437
(I10008
I10033
tp436
sI438
(I10033
I10058
tp437
sI439
(I10058
I10074
tp438
sI440
(I10074
I10091
tp439
sI441
(I10091
I10116
tp440
sI442
(I10116
I10140
tp441
sI443
(I10140
I10148
tp442
sI444
(I10148
I10167
tp443
sI445
(I10167
I10179
tp444
sI446
(I10179
I10204
tp445
sI447
(I10204
I10240
tp446
sI448
(I10240
I10262
tp447
sI449
(I10262
I10263
tp448
sI450
(I10263
I10280
tp449
sI451
(I10280
I10305
tp450
sI452
(I10305
I10315
tp451
sI453
(I10315
I10349
tp452
sI454
(I10349
I10376
tp453
sI455
(I10376
I10379
tp454
sI456
(I10379
I10393
tp455
sI457
(I10393
I10424
tp456
sI458
(I10424
I10439
tp457
sI459
(I10439
I10452
tp458
sI460
(I10452
I10486
tp459
sI461
(I10486
I10517
tp460
sI462
(I10517
I10535
tp461
sI463
(I10535
I10564
tp462
sI464
(I10564
I10579
tp463
sI465
(I10579
I10603
tp464
sI466
(I10603
I10622
tp465
sI467
(I10622
I10643
tp466
sI468
(I10643
I10652
tp467
sI469
(I10652
I10675
tp468
sI470
(I10675
I10694
tp469
sI471
(I10694
I10721
tp470
sI472
(I10721
I10751
tp471
sI473
(I10751
I10767
tp472
sI474
(I10767
I10778
tp473
sI475
(I10778
I10803
tp474
sI476
(I10803
I10823
tp475
sI477
(I10823
I10833
tp476
sI478
(I10833
I10855
tp477
sI479
(I10855
I10889
tp478
sI480
(I10889
I10909
tp479
sI481
(I10909
I10936
tp480
sI482
(I10936
I10967
tp481
sI483
(I10967
I10981
tp482
sI484
(I10981
I10994
tp483
sI485
(I10994
I11029
tp484
sI486
(I11029
I11058
tp485
sI487
(I11058
I11075
tp486
sI488
(I11075
I11099
tp487
sI489
(I11099
I11129
tp488
sI490
(I11129
I11168
tp489
sI491
(I11168
I11180
tp490
sI492
(I11180
I11193
tp491
sI493
(I11193
I11206
tp492
sI494
(I11206
I11238
tp493
sI495
(I11238
I11260
tp494
sI496
(I11260
I11280
tp495
sI497
(I11280
I11313
tp496
sI498
(I11313
I11340
tp497
sI499
(I11340
I11376
tp498
sI500
(I11376
I11412
tp499
sI501
(I11412
I11438
tp500
sI502
(I11438
I11443
tp501
sI503
(I11443
I11453
tp502
sI504
(I11453
I11492
tp503
sI505
(I11492
I11520
tp504
sI506
(I11520
I11530
tp505
sI507
(I11530
I11579
tp506
sI508
(I11579
I11596
tp507
sI509
(I11596
I11614
tp508
sI510
(I11614
I11635
tp509
sI511
(I11635
I11649
tp510
sI512
(I11649
I11656
tp511
sI513
(I11656
I11682
tp512
sI514
(I11682
I11698
tp513
sI515
(I11698
I11713
tp514
sI516
(I11713
I11747
tp515
sI517
(I11747
I11774
tp516
sI518
(I11774
I11794
tp517
sI519
(I11794
I11827
tp518
sI520
(I11827
I11838
tp519
sI521
(I11838
I11854
tp520
sI522
(I11854
I11886
tp521
sI523
(I11886
I11910
tp522
sI524
(I11910
I11949
tp523
sI525
(I11949
I11969
tp524
sI526
(I11969
I11984
tp525
sI527
(I11984
I12001
tp526
sI528
(I12001
I12011
tp527
sI529
(I12011
I12017
tp528
sI530
(I12017
I12040
tp529
sI531
(I12040
I12073
tp530
sI532
(I12073
I12096
tp531
sI533
(I12096
I12123
tp532
sI534
(I12123
I12167
tp533
sI535
(I12167
I12185
tp534
sI536
(I12185
I12207
tp535
sI537
(I12207
I12228
tp536
sI538
(I12228
I12244
tp537
sI539
(I12244
I12253
tp538
sI540
(I12253
I12273
tp539
sI541
(I12273
I12307
tp540
sI542
(I12307
I12348
tp541
sI543
(I12348
I12380
tp542
sI544
(I12380
I12398
tp543
sI545
(I12398
I12400
tp544
sI546
(I12400
I12406
tp545
sI547
(I12406
I12429
tp546
sI548
(I12429
I12453
tp547
sI549
(I12453
I12471
tp548
sI550
(I12471
I12510
tp549
sI551
(I12510
I12529
tp550
sI552
(I12529
I12542
tp551
sI553
(I12542
I12564
tp552
sI554
(I12564
I12583
tp553
sI555
(I12583
I12616
tp554
sI556
(I12616
I12650
tp555
sI557
(I12650
I12687
tp556
sI558
(I12687
I12710
tp557
sI559
(I12710
I12735
tp558
sI560
(I12735
I12753
tp559
sI561
(I12753
I12773
tp560
sI562
(I12773
I12804
tp561
sI563
(I12804
I12818
tp562
sI564
(I12818
I12843
tp563
sI565
(I12843
I12870
tp564
sI566
(I12870
I12889
tp565
sI567
(I12889
I12900
tp566
sI568
(I12900
I12926
tp567
sI569
(I12926
I12943
tp568
sI570
(I12943
I12968
tp569
sI571
(I12968
I12991
tp570
sI572
(I12991
I13020
tp571
sI573
(I13020
I13058
tp572
sI574
(I13058
I13085
tp573
sI575
(I13085
I13107
tp574
sI576
(I13107
I13127
tp575
sI577
(I13127
I13133
tp576
sI578
(I13133
I13148
tp577
sI579
(I13148
I13170
tp578
sI580
(I13170
I13201
tp579
sI581
(I13201
I13230
tp580
sI582
(I13230
I13265
tp581
sI583
(I13265
I13285
tp582
sI584
(I13285
I13300
tp583
sI585
(I13300
I13344
tp584
sI586
(I13344
I13364
tp585
sI587
(I13364
I13396
tp586
sI588
(I13396
I13428
tp587
sI589
(I13428
I13434
tp588
sI590
(I13434
I13447
tp589
sI591
(I13447
I13470
tp590
sI592
(I13470
I13496
tp591
sI593
(I13496
I13518
tp592
sI594
(I13518
I13534
tp593
sI595
(I13534
I13549
tp594
sI596
(I13549
I13555
tp595
sI597
(I13555
I13587
tp596
sI598
(I13587
I13607
tp597
sI599
(I13607
I13630
tp598
sI600
(I13630
I13633
tp599
sI601
(I13633
I13648
tp600
sI602
(I13648
I13658
tp601
sI603
(I13658
I13701
tp602
sI604
(I13701
I13721
tp603
sI605
(I13721
I13725
tp604
sI606
(I13725
I13747
tp605
sI607
(I13747
I13773
tp606
sI608
(I13773
I13790
tp607
sI609
(I13790
I13798
tp608
sI610
(I13798
I13814
tp609
sI611
(I13814
I13828
tp610
sI612
(I13828
I13860
tp611
sI613
(I13860
I13886
tp612
sI614
(I13886
I13905
tp613
sI615
(I13905
I13931
tp614
sI616
(I13931
I13940
tp615
sI617
(I13940
I13962
tp616
sI618
(I13962
I13995
tp617
sI619
(I13995
I14028
tp618
sI620
(I14028
I14045
tp619
sI621
(I14045
I14048
tp620
sI622
(I14048
I14068
tp621
sI623
(I14068
I14076
tp622
sI624
(I14076
I14099
tp623
sI625
(I14099
I14122
tp624
sI626
(I14122
I14133
tp625
sI627
(I14133
I14145
tp626
sI628
(I14145
I14163
tp627
sI629
(I14163
I14199
tp628
sI630
(I14199
I14224
tp629
sI631
(I14224
I14239
tp630
sI632
(I14239
I14260
tp631
sI633
(I14260
I14282
tp632
sI634
(I14282
I14285
tp633
sI635
(I14285
I14327
tp634
sI636
(I14327
I14345
tp635
sI637
(I14345
I14372
tp636
sI638
(I14372
I14390
tp637
sI639
(I14390
I14397
tp638
sI640
(I14397
I14411
tp639
sI641
(I14411
I14429
tp640
sI642
(I14429
I14459
tp641
sI643
(I14459
I14494
tp642
sI644
(I14494
I14515
tp643
sI645
(I14515
I14542
tp644
sI646
(I14542
I14557
tp645
sI647
(I14557
I14575
tp646
sI648
(I14575
I14597
tp647
sI649
(I14597
I14614
tp648
sI650
(I14614
I14644
tp649
sI651
(I14644
I14668
tp650
sI652
(I14668
I14686
tp651
sI653
(I14686
I14705
tp652
sI654
(I14705
I14739
tp653
sI655
(I14739
I14752
tp654
sI656
(I14752
I14768
tp655
sI657
(I14768
I14794
tp656
sI658
(I14794
I14814
tp657
sI659
(I14814
I14838
tp658
sI660
(I14838
I14868
tp659
sI661
(I14868
I14883
tp660
sI662
(I14883
I14892
tp661
sI663
(I14892
I14913
tp662
sI664
(I14913
I14939
tp663
sI665
(I14939
I14953
tp664
sI666
(I14953
I14972
tp665
sI667
(I14972
I14990
tp666
sI668
(I14990
I15026
tp667
sI669
(I15026
I15053
tp668
sI670
(I15053
I15072
tp669
sI671
(I15072
I15087
tp670
sI672
(I15087
I15112
tp671
sI673
(I15112
I15120
tp672
sI674
(I15120
I15139
tp673
sI675
(I15139
I15154
tp674
sI676
(I15154
I15165
tp675
sI677
(I15165
I15177
tp676
sI678
(I15177
I15201
tp677
sI679
(I15201
I15224
tp678
sI680
(I15224
I15243
tp679
sI681
(I15243
I15264
tp680
sI682
(I15264
I15299
tp681
sI683
(I15299
I15341
tp682
sI684
(I15341
I15365
tp683
sI685
(I15365
I15386
tp684
sI686
(I15386
I15412
tp685
sI687
(I15412
I15435
tp686
sI688
(I15435
I15449
tp687
sI689
(I15449
I15471
tp688
sI690
(I15471
I15498
tp689
sI691
(I15498
I15504
tp690
sI692
(I15504
I15507
tp691
sI693
(I15507
I15518
tp692
sI694
(I15518
I15542
tp693
sI695
(I15542
I15565
tp694
sI696
(I15565
I15581
tp695
sI697
(I15581
I15606
tp696
sI698
(I15606
I15612
tp697
sI699
(I15612
I15656
tp698
sI700
(I15656
I15672
tp699
sI701
(I15672
I15705
tp700
sI702
(I15705
I15712
tp701
sI703
(I15712
I15732
tp702
sI704
(I15732
I15744
tp703
sI705
(I15744
I15772
tp704
sI706
(I15772
I15807
tp705
sI707
(I15807
I15821
tp706
sI708
(I15821
I15842
tp707
sI709
(I15842
I15877
tp708
sI710
(I15877
I15905
tp709
sI711
(I15905
I15926
tp710
sI712
(I15926
I15948
tp711
sI713
(I15948
I15970
tp712
sI714
(I15970
I15995
tp713
sI715
(I15995
I16008
tp714
sI716
(I16008
I16033
tp715
sI717
(I16033
I16062
tp716
sI718
(I16062
I16091
tp717
sI719
(I16091
I16108
tp718
sI720
(I16108
I16134
tp719
sI721
(I16134
I16155
tp720
sI722
(I16155
I16194
tp721
sI723
(I16194
I16225
tp722
sI724
(I16225
I16244
tp723
sI725
(I16244
I16252
tp724
sI726
(I16252
I16275
tp725
sI727
(I16275
I16283
tp726
sI728
(I16283
I16303
tp727
sI729
(I16303
I16319
tp728
sI730
(I16319
I16348
tp729
sI731
(I16348
I16373
tp730
sI732
(I16373
I16390
tp731
sI733
(I16390
I16399
tp732
sI734
(I16399
I16433
tp733
sI735
(I16433
I16456
tp734
sI736
(I16456
I16481
tp735
sI737
(I16481
I16508
tp736
sI738
(I16508
I16518
tp737
sI739
(I16518
I16546
tp738
sI740
(I16546
I16565
tp739
sI741
(I16565
I16581
tp740
sI742
(I16581
I16622
tp741
sI743
(I16622
I16649
tp742
sI744
(I16649
I16669
tp743
sI745
(I16669
I16683
tp744
sI746
(I16683
I16706
tp745
sI747
(I16706
I16721
tp746
sI748
(I16721
I16748
tp747
sI749
(I16748
I16786
tp748
sI750
(I16786
I16802
tp749
sI751
(I16802
I16820
tp750
sI752
(I16820
I16831
tp751
sI753
(I16831
I16840
tp752
sI754
(I16840
I16863
tp753
sI755
(I16863
I16892
tp754
sI756
(I16892
I16904
tp755
sI757
(I16904
I16928
tp756
sI758
(I16928
I16950
tp757
sI759
(I16950
I16974
tp758
sI760
(I16974
I16993
tp759
sI761
(I16993
I17008
tp760
sI762
(I17008
I17044
tp761
sI763
(I17044
I17068
tp762
sI764
(I17068
I17098
tp763
sI765
(I17098
I17118
tp764
sI766
(I17118
I17127
tp765
sI767
(I17127
I17152
tp766
sI768
(I17152
I17169
tp767
sI769
(I17169
I17200
tp768
sI770
(I17200
I17225
tp769
sI771
(I17225
I17247
tp770
sI772
(I17247
I17279
tp771
sI773
(I17279
I17307
tp772
sI774
(I17307
I17326
tp773
sI775
(I17326
I17350
tp774
sI776
(I17350
I17356
tp775
sI777
(I17356
I17401
tp776
sI778
(I17401
I17425
tp777
sI779
(I17425
I17443
tp778
sI780
(I17443
I17462
tp779
sI781
(I17462
I17491
tp780
sI782
(I17491
I17526
tp781
sI783
(I17526
I17540
tp782
sI784
(I17540
I17570
tp783
sI785
(I17570
I17592
tp784
sI786
(I17592
I17616
tp785
sI787
(I17616
I17637
tp786
sI788
(I17637
I17652
tp787
sI789
(I17652
I17658
tp788
sI790
(I17658
I17685
tp789
sI791
(I17685
I17703
tp790
sI792
(I17703
I17728
tp791
sI793
(I17728
I17760
tp792
sI794
(I17760
I17789
tp793
sI795
(I17789
I17815
tp794
sI796
(I17815
I17841
tp795
sI797
(I17841
I17877
tp796
sI798
(I17877
I17911
tp797
sI799
(I17911
I17925
tp798
sI800
(I17925
I17944
tp799
sI801
(I17944
I17990
tp800
sI802
(I17990
I18012
tp801
sI803
(I18012
I18030
tp802
sI804
(I18030
I18045
tp803
sI805
(I18045
I18072
tp804
sI806
(I18072
I18093
tp805
sI807
(I18093
I18126
tp806
sI808
(I18126
I18144
tp807
sI809
(I18144
I18180
tp808
sI810
(I18180
I18204
tp809
sI811
(I18204
I18223
tp810
sI812
(I18223
I18236
tp811
sI813
(I18236
I18248
tp812
sI814
(I18248
I18273
tp813
sI815
(I18273
I18305
tp814
sI816
(I18305
I18323
tp815
sI817
(I18323
I18367
tp816
sI818
(I18367
I18384
tp817
sI819
(I18384
I18400
tp818
sI820
(I18400
I18407
tp819
sI821
(I18407
I18428
tp820
sI822
(I18428
I18439
tp821
sI823
(I18439
I18459
tp822
sI824
(I18459
I18492
tp823
sI825
(I18492
I18509
tp824
sI826
(I18509
I18533
tp825
sI827
(I18533
I18542
tp826
sI828
(I18542
I18587
tp827
sI829
(I18587
I18610
tp828
sI830
(I18610
I18638
tp829
sI831
(I18638
I18665
tp830
sI832
(I18665
I18666
tp831
sI833
(I18666
I18699
tp832
sI834
(I18699
I18735
tp833
sI835
(I18735
I18762
tp834
sI836
(I18762
I18788
tp835
sI837
(I18788
I18801
tp836
sI838
(I18801
I18808
tp837
sI839
(I18808
I18840
tp838
sI840
(I18840
I18861
tp839
sI841
(I18861
I18872
tp840
sI842
(I18872
I18898
tp841
sI843
(I18898
I18913
tp842
sI844
(I18913
I18942
tp843
sI845
(I18942
I18968
tp844
sI846
(I18968
I18985
tp845
sI847
(I18985
I19023
tp846
sI848
(I19023
I19039
tp847
sI849
(I19039
I19047
tp848
sI850
(I19047
I19079
tp849
sI851
(I19079
I19105
tp850
sI852
(I19105
I19141
tp851
sI853
(I19141
I19170
tp852
sI854
(I19170
I19206
tp853
sI855
(I19206
I19221
tp854
sI856
(I19221
I19241
tp855
sI857
(I19241
I19247
tp856
sI858
(I19247
I19272
tp857
sI859
(I19272
I19305
tp858
sI860
(I19305
I19329
tp859
sI861
(I19329
I19348
tp860
sI862
(I19348
I19365
tp861
sI863
(I19365
I19394
tp862
sI864
(I19394
I19417
tp863
sI865
(I19417
I19435
tp864
sI866
(I19435
I19452
tp865
sI867
(I19452
I19469
tp866
sI868
(I19469
I19495
tp867
sI869
(I19495
I19499
tp868
sI870
(I19499
I19518
tp869
sI871
(I19518
I19563
tp870
sI872
(I19563
I19582
tp871
sI873
(I19582
I19598
tp872
sI874
(I19598
I19637
tp873
sI875
(I19637
I19671
tp874
sI876
(I19671
I19700
tp875
sI877
(I19700
I19724
tp876
sI878
(I19724
I19748
tp877
sI879
(I19748
I19769
tp878
sI880
(I19769
I19794
tp879
sI881
(I19794
I19814
tp880
sI882
(I19814
I19838
tp881
sI883
(I19838
I19862
tp882
sI884
(I19862
I19877
tp883
sI885
(I19877
I19893
tp884
sI886
(I19893
I19918
tp885
sI887
(I19918
I19953
tp886
sI888
(I19953
I19982
tp887
sI889
(I19982
I20004
tp888
sI890
(I20004
I20027
tp889
sI891
(I20027
I20065
tp890
sI892
(I20065
I20099
tp891
sI893
(I20099
I20114
tp892
sI894
(I20114
I20135
tp893
sI895
(I20135
I20164
tp894
sI896
(I20164
I20176
tp895
sI897
(I20176
I20213
tp896
sI898
(I20213
I20227
tp897
sI899
(I20227
I20255
tp898
sI900
(I20255
I20277
tp899
sI901
(I20277
I20285
tp900
sI902
(I20285
I20314
tp901
sI903
(I20314
I20334
tp902
sI904
(I20334
I20349
tp903
sI905
(I20349
I20358
tp904
sI906
(I20358
I20388
tp905
sI907
(I20388
I20407
tp906
sI908
(I20407
I20433
tp907
sI909
(I20433
I20466
tp908
sI910
(I20466
I20489
tp909
sI911
(I20489
I20504
tp910
sI912
(I20504
I20538
tp911
sI913
(I20538
I20570
tp912
sI914
(I20570
I20590
tp913
sI915
(I20590
I20619
tp914
sI916
(I20619
I20656
tp915
sI917
(I20656
I20665
tp916
sI918
(I20665
I20705
tp917
sI919
(I20705
I20726
tp918
sI920
(I20726
I20757
tp919
sI921
(I20757
I20777
tp920
sI922
(I20777
I20799
tp921
sI923
(I20799
I20815
tp922
sI924
(I20815
I20832
tp923
sI925
(I20832
I20850
tp924
sI926
(I20850
I20865
tp925
sI927
(I20865
I20883
tp926
sI928
(I20883
I20912
tp927
sI929
(I20912
I20951
tp928
sI930
(I20951
I20970
tp929
sI931
(I20970
I20989
tp930
sI932
(I20989
I21021
tp931
sI933
(I21021
I21038
tp932
sI934
(I21038
I21061
tp933
sI935
(I21061
I21086
tp934
sI936
(I21086
I21095
tp935
sI937
(I21095
I21116
tp936
sI938
(I21116
I21144
tp937
sI939
(I21144
I21152
tp938
sI940
(I21152
I21167
tp939
sI941
(I21167
I21200
tp940
sI942
(I21200
I21230
tp941
sI943
(I21230
I21251
tp942
sI944
(I21251
I21261
tp943
sI945
(I21261
I21286
tp944
sI946
(I21286
I21317
tp945
sI947
(I21317
I21353
tp946
sI948
(I21353
I21377
tp947
sI949
(I21377
I21400
tp948
sI950
(I21400
I21427
tp949
sI951
(I21427
I21454
tp950
sI952
(I21454
I21479
tp951
sI953
(I21479
I21505
tp952
sI954
(I21505
I21526
tp953
sI955
(I21526
I21549
tp954
sI956
(I21549
I21581
tp955
sI957
(I21581
I21604
tp956
sI958
(I21604
I21622
tp957
sI959
(I21622
I21645
tp958
sI960
(I21645
I21657
tp959
sI961
(I21657
I21685
tp960
sI962
(I21685
I21713
tp961
sI963
(I21713
I21725
tp962
sI964
(I21725
I21758
tp963
sI965
(I21758
I21776
tp964
sI966
(I21776
I21791
tp965
sI967
(I21791
I21824
tp966
sI968
(I21824
I21845
tp967
sI969
(I21845
I21869
tp968
sI970
(I21869
I21902
tp969
sI971
(I21902
I21926
tp970
sI972
(I21926
I21952
tp971
sI973
(I21952
I21970
tp972
sI974
(I21970
I21973
tp973
sI975
(I21973
I21988
tp974
sI976
(I21988
I22005
tp975
sI977
(I22005
I22028
tp976
sI978
(I22028
I22040
tp977
sI979
(I22040
I22082
tp978
sI980
(I22082
I22117
tp979
sI981
(I22117
I22131
tp980
sI982
(I22131
I22145
tp981
sI983
(I22145
I22181
tp982
sI984
(I22181
I22210
tp983
sI985
(I22210
I22236
tp984
sI986
(I22236
I22277
tp985
sI987
(I22277
I22300
tp986
sI988
(I22300
I22321
tp987
sI989
(I22321
I22342
tp988
sI990
(I22342
I22374
tp989
sI991
(I22374
I22382
tp990
sI992
(I22382
I22386
tp991
sI993
(I22386
I22411
tp992
sI994
(I22411
I22429
tp993
sI995
(I22429
I22434
tp994
sI996
(I22434
I22449
tp995
sI997
(I22449
I22476
tp996
sI998
(I22476
I22506
tp997
sI999
(I22506
I22542
tp998
sI1000
(I22542
I22583
tp999
sI1001
(I22583
I22607
tp1000
sI1002
(I22607
I22634
tp1001
sI1003
(I22634
I22655
tp1002
sI1004
(I22655
I22661
tp1003
sI1005
(I22661
I22684
tp1004
sI1006
(I22684
I22715
tp1005
sI1007
(I22715
I22742
tp1006
sI1008
(I22742
I22757
tp1007
sI1009
(I22757
I22785
tp1008
sI1010
(I22785
I22791
tp1009
sI1011
(I22791
I22818
tp1010
sI1012
(I22818
I22853
tp1011
sI1013
(I22853
I22872
tp1012
sI1014
(I22872
I22899
tp1013
sI1015
(I22899
I22934
tp1014
sI1016
(I22934
I22954
tp1015
sI1017
(I22954
I22979
tp1016
sI1018
(I22979
I23011
tp1017
sI1019
(I23011
I23035
tp1018
sI1020
(I23035
I23047
tp1019
sI1021
(I23047
I23069
tp1020
sI1022
(I23069
I23104
tp1021
sI1023
(I23104
I23121
tp1022
sI1024
(I23121
I23150
tp1023
sI1025
(I23150
I23167
tp1024
sI1026
(I23167
I23204
tp1025
sI1027
(I23204
I23233
tp1026
sI1028
(I23233
I23271
tp1027
sI1029
(I23271
I23294
tp1028
sI1030
(I23294
I23305
tp1029
sI1031
(I23305
I23332
tp1030
sI1032
(I23332
I23355
tp1031
sI1033
(I23355
I23394
tp1032
sI1034
(I23394
I23410
tp1033
sI1035
(I23410
I23425
tp1034
sI1036
(I23425
I23450
tp1035
sI1037
(I23450
I23458
tp1036
sI1038
(I23458
I23492
tp1037
sI1039
(I23492
I23517
tp1038
sI1040
(I23517
I23529
tp1039
sI1041
(I23529
I23533
tp1040
sI1042
(I23533
I23551
tp1041
sI1043
(I23551
I23580
tp1042
sI1044
(I23580
I23602
tp1043
sI1045
(I23602
I23630
tp1044
sI1046
(I23630
I23661
tp1045
sI1047
(I23661
I23694
tp1046
sI1048
(I23694
I23737
tp1047
sI1049
(I23737
I23762
tp1048
sI1050
(I23762
I23793
tp1049
sI1051
(I23793
I23806
tp1050
sI1052
(I23806
I23829
tp1051
sI1053
(I23829
I23856
tp1052
sI1054
(I23856
I23878
tp1053
sI1055
(I23878
I23899
tp1054
sI1056
(I23899
I23917
tp1055
sI1057
(I23917
I23954
tp1056
sI1058
(I23954
I23975
tp1057
sI1059
(I23975
I23983
tp1058
sI1060
(I23983
I24000
tp1059
sI1061
(I24000
I24025
tp1060
sI1062
(I24025
I24052
tp1061
sI1063
(I24052
I24083
tp1062
sI1064
(I24083
I24112
tp1063
sI1065
(I24112
I24125
tp1064
sI1066
(I24125
I24153
tp1065
sI1067
(I24153
I24187
tp1066
sI1068
(I24187
I24219
tp1067
sI1069
(I24219
I24238
tp1068
sI1070
(I24238
I24249
tp1069
sI1071
(I24249
I24263
tp1070
sI1072
(I24263
I24285
tp1071
sI1073
(I24285
I24305
tp1072
sI1074
(I24305
I24330
tp1073
sI1075
(I24330
I24350
tp1074
sI1076
(I24350
I24377
tp1075
sI1077
(I24377
I24390
tp1076
sI1078
(I24390
I24430
tp1077
sI1079
(I24430
I24441
tp1078
sI1080
(I24441
I24463
tp1079
sI1081
(I24463
I24482
tp1080
sI1082
(I24482
I24505
tp1081
sI1083
(I24505
I24527
tp1082
sI1084
(I24527
I24542
tp1083
sI1085
(I24542
I24558
tp1084
sI1086
(I24558
I24583
tp1085
sI1087
(I24583
I24612
tp1086
sI1088
(I24612
I24642
tp1087
sI1089
(I24642
I24668
tp1088
sI1090
(I24668
I24680
tp1089
sI1091
(I24680
I24717
tp1090
sI1092
(I24717
I24752
tp1091
sI1093
(I24752
I24769
tp1092
sI1094
(I24769
I24793
tp1093
sI1095
(I24793
I24811
tp1094
sI1096
(I24811
I24815
tp1095
sI1097
(I24815
I24838
tp1096
sI1098
(I24838
I24869
tp1097
sI1099
(I24869
I24889
tp1098
sI1100
(I24889
I24902
tp1099
sI1101
(I24902
I24911
tp1100
sI1102
(I24911
I24928
tp1101
sI1103
(I24928
I24933
tp1102
sI1104
(I24933
I24969
tp1103
sI1105
(I24969
I24995
tp1104
sI1106
(I24995
I25019
tp1105
sI1107
(I25019
I25024
tp1106
sI1108
(I25024
I25062
tp1107
sI1109
(I25062
I25088
tp1108
sI1110
(I25088
I25105
tp1109
sI1111
(I25105
I25131
tp1110
sI1112
(I25131
I25145
tp1111
sI1113
(I25145
I25171
tp1112
sI1114
(I25171
I25200
tp1113
sI1115
(I25200
I25228
tp1114
sI1116
(I25228
I25243
tp1115
sI1117
(I25243
I25257
tp1116
sI1118
(I25257
I25291
tp1117
sI1119
(I25291
I25311
tp1118
sI1120
(I25311
I25350
tp1119
sI1121
(I25350
I25353
tp1120
sI1122
(I25353
I25379
tp1121
sI1123
(I25379
I25391
tp1122
sI1124
(I25391
I25411
tp1123
sI1125
(I25411
I25433
tp1124
sI1126
(I25433
I25452
tp1125
sI1127
(I25452
I25469
tp1126
sI1128
(I25469
I25495
tp1127
sI1129
(I25495
I25517
tp1128
sI1130
(I25517
I25525
tp1129
sI1132
(I25525
I25546
tp1130
sI1133
(I25546
I25577
tp1131
sI1134
(I25577
I25588
tp1132
sI1135
(I25588
I25624
tp1133
sI1136
(I25624
I25643
tp1134
sI1137
(I25643
I25670
tp1135
sI1138
(I25670
I25695
tp1136
sI1139
(I25695
I25707
tp1137
sI1140
(I25707
I25729
tp1138
sI1141
(I25729
I25741
tp1139
sI1142
(I25741
I25767
tp1140
sI1143
(I25767
I25795
tp1141
sI1144
(I25795
I25828
tp1142
sI1145
(I25828
I25854
tp1143
sI1146
(I25854
I25880
tp1144
sI1147
(I25880
I25907
tp1145
sI1148
(I25907
I25924
tp1146
sI1149
(I25924
I25953
tp1147
sI1150
(I25953
I25976
tp1148
sI1151
(I25976
I26010
tp1149
sI1152
(I26010
I26031
tp1150
sI1153
(I26031
I26061
tp1151
sI1154
(I26061
I26072
tp1152
sI1155
(I26072
I26097
tp1153
sI1156
(I26097
I26129
tp1154
sI1157
(I26129
I26141
tp1155
sI1158
(I26141
I26174
tp1156
sI1159
(I26174
I26201
tp1157
sI1160
(I26201
I26226
tp1158
sI1161
(I26226
I26243
tp1159
sI1162
(I26243
I26264
tp1160
sI1163
(I26264
I26301
tp1161
sI1164
(I26301
I26325
tp1162
sI1165
(I26325
I26341
tp1163
sI1166
(I26341
I26371
tp1164
sI1167
(I26371
I26402
tp1165
sI1168
(I26402
I26416
tp1166
sI1169
(I26416
I26440
tp1167
sI1170
(I26440
I26467
tp1168
sI1171
(I26467
I26517
tp1169
sI1172
(I26517
I26537
tp1170
sI1173
(I26537
I26563
tp1171
sI1174
(I26563
I26585
tp1172
sI1175
(I26585
I26622
tp1173
sI1176
(I26622
I26650
tp1174
sI1177
(I26650
I26661
tp1175
sI1178
(I26661
I26675
tp1176
sI1179
(I26675
I26697
tp1177
sI1180
(I26697
I26728
tp1178
sI1181
(I26728
I26753
tp1179
sI1182
(I26753
I26761
tp1180
sI1183
(I26761
I26771
tp1181
sI1184
(I26771
I26797
tp1182
sI1185
(I26797
I26822
tp1183
sI1186
(I26822
I26846
tp1184
sI1187
(I26846
I26872
tp1185
sI1188
(I26872
I26898
tp1186
sI1189
(I26898
I26913
tp1187
sI1190
(I26913
I26947
tp1188
sI1191
(I26947
I26974
tp1189
sI1192
(I26974
I26990
tp1190
sI1193
(I26990
I27028
tp1191
sI1194
(I27028
I27055
tp1192
sI1195
(I27055
I27090
tp1193
sI1196
(I27090
I27115
tp1194
sI1197
(I27115
I27139
tp1195
sI1198
(I27139
I27147
tp1196
sI1199
(I27147
I27174
tp1197
sI1200
(I27174
I27197
tp1198
sI1201
(I27197
I27223
tp1199
sI1202
(I27223
I27249
tp1200
sI1203
(I27249
I27283
tp1201
sI1204
(I27283
I27309
tp1202
sI1205
(I27309
I27327
tp1203
sI1206
(I27327
I27362
tp1204
sI1207
(I27362
I27387
tp1205
sI1208
(I27387
I27398
tp1206
sI1209
(I27398
I27423
tp1207
sI1210
(I27423
I27450
tp1208
sI1211
(I27450
I27476
tp1209
sI1212
(I27476
I27499
tp1210
sI1213
(I27499
I27522
tp1211
sI1214
(I27522
I27568
tp1212
sI1215
(I27568
I27588
tp1213
sI1216
(I27588
I27606
tp1214
sI1217
(I27606
I27612
tp1215
sI1218
(I27612
I27644
tp1216
sI1219
(I27644
I27662
tp1217
sI1220
(I27662
I27697
tp1218
sI1221
(I27697
I27723
tp1219
sI1222
(I27723
I27737
tp1220
sI1223
(I27737
I27763
tp1221
sI1224
(I27763
I27788
tp1222
sI1225
(I27788
I27814
tp1223
sI1226
(I27814
I27840
tp1224
sI1227
(I27840
I27854
tp1225
sI1228
(I27854
I27865
tp1226
sI1229
(I27865
I27897
tp1227
sI1230
(I27897
I27928
tp1228
sI1231
(I27928
I27936
tp1229
sI1232
(I27936
I27960
tp1230
sI1233
(I27960
I27999
tp1231
sI1234
(I27999
I28027
tp1232
sI1236
(I28027
I28047
tp1233
sI1237
(I28047
I28085
tp1234
sI1238
(I28085
I28110
tp1235
sI1239
(I28110
I28140
tp1236
sI1240
(I28140
I28169
tp1237
sI1241
(I28169
I28195
tp1238
sI1242
(I28195
I28218
tp1239
sI1243
(I28218
I28233
tp1240
sI1244
(I28233
I28258
tp1241
sI1245
(I28258
I28283
tp1242
sI1246
(I28283
I28309
tp1243
sI1247
(I28309
I28320
tp1244
sI1248
(I28320
I28343
tp1245
sI1249
(I28343
I28393
tp1246
sI1250
(I28393
I28443
tp1247
sI1251
(I28443
I28476
tp1248
sI1252
(I28476
I28521
tp1249
sI1253
(I28521
I28522
tp1250
sI1254
(I28522
I28546
tp1251
sI1255
(I28546
I28583
tp1252
sI1256
(I28583
I28614
tp1253
sI1257
(I28614
I28649
tp1254
sI1258
(I28649
I28681
tp1255
sI1259
(I28681
I28708
tp1256
sI1260
(I28708
I28728
tp1257
sI1261
(I28728
I28751
tp1258
sI1262
(I28751
I28776
tp1259
sI1263
(I28776
I28795
tp1260
sI1264
(I28795
I28818
tp1261
sI1265
(I28818
I28847
tp1262
sI1266
(I28847
I28864
tp1263
sI1267
(I28864
I28890
tp1264
sI1268
(I28890
I28910
tp1265
sI1269
(I28910
I28937
tp1266
sI1270
(I28937
I28952
tp1267
sI1271
(I28952
I28980
tp1268
sI1272
(I28980
I29008
tp1269
sI1273
(I29008
I29032
tp1270
sI1274
(I29032
I29046
tp1271
sI1275
(I29046
I29070
tp1272
sI1276
(I29070
I29090
tp1273
sI1277
(I29090
I29110
tp1274
sI1278
(I29110
I29123
tp1275
sI1279
(I29123
I29145
tp1276
sI1280
(I29145
I29156
tp1277
sI1281
(I29156
I29174
tp1278
sI1282
(I29174
I29206
tp1279
sI1283
(I29206
I29231
tp1280
sI1284
(I29231
I29258
tp1281
sI1285
(I29258
I29286
tp1282
sI1286
(I29286
I29299
tp1283
sI1287
(I29299
I29322
tp1284
sI1288
(I29322
I29348
tp1285
sI1289
(I29348
I29364
tp1286
sI1290
(I29364
I29396
tp1287
sI1291
(I29396
I29419
tp1288
sI1292
(I29419
I29442
tp1289
sI1293
(I29442
I29458
tp1290
sI1294
(I29458
I29492
tp1291
sI1295
(I29492
I29498
tp1292
sI1296
(I29498
I29511
tp1293
sI1297
(I29511
I29533
tp1294
sI1298
(I29533
I29549
tp1295
sI1299
(I29549
I29581
tp1296
sI1300
(I29581
I29614
tp1297
sI1301
(I29614
I29629
tp1298
sI1302
(I29629
I29657
tp1299
sI1303
(I29657
I29674
tp1300
sI1304
(I29674
I29710
tp1301
sI1305
(I29710
I29746
tp1302
sI1306
(I29746
I29769
tp1303
sI1307
(I29769
I29792
tp1304
sI1308
(I29792
I29814
tp1305
sI1309
(I29814
I29835
tp1306
sI1310
(I29835
I29847
tp1307
sI1311
(I29847
I29868
tp1308
sI1312
(I29868
I29899
tp1309
sI1313
(I29899
I29919
tp1310
sI1314
(I29919
I29954
tp1311
sI1315
(I29954
I29988
tp1312
sI1316
(I29988
I30010
tp1313
sI1317
(I30010
I30031
tp1314
sI1318
(I30031
I30053
tp1315
sI1319
(I30053
I30075
tp1316
sI1320
(I30075
I30114
tp1317
sI1321
(I30114
I30150
tp1318
sI1322
(I30150
I30171
tp1319
sI1323
(I30171
I30183
tp1320
sI1324
(I30183
I30204
tp1321
sI1325
(I30204
I30253
tp1322
sI1326
(I30253
I30289
tp1323
sI1327
(I30289
I30319
tp1324
sI1328
(I30319
I30348
tp1325
sI1329
(I30348
I30369
tp1326
sI1330
(I30369
I30397
tp1327
sI1331
(I30397
I30435
tp1328
sI1332
(I30435
I30460
tp1329
sI1333
(I30460
I30488
tp1330
sI1334
(I30488
I30500
tp1331
sI1335
(I30500
I30510
tp1332
sI1336
(I30510
I30556
tp1333
sI1337
(I30556
I30570
tp1334
sI1338
(I30570
I30598
tp1335
sI1339
(I30598
I30608
tp1336
sI1340
(I30608
I30632
tp1337
sI1341
(I30632
I30665
tp1338
sI1342
(I30665
I30679
tp1339
sI1343
(I30679
I30703
tp1340
sI1344
(I30703
I30728
tp1341
sI1345
(I30728
I30754
tp1342
sI1346
(I30754
I30764
tp1343
sI1347
(I30764
I30776
tp1344
sI1348
(I30776
I30793
tp1345
sI1349
(I30793
I30820
tp1346
sI1350
(I30820
I30846
tp1347
sI1351
(I30846
I30883
tp1348
sI1352
(I30883
I30902
tp1349
sI1353
(I30902
I30925
tp1350
sI1354
(I30925
I30940
tp1351
sI1355
(I30940
I30958
tp1352
sI1356
(I30958
I30983
tp1353
sI1357
(I30983
I31017
tp1354
sI1358
(I31017
I31048
tp1355
sI1359
(I31048
I31080
tp1356
sI1360
(I31080
I31104
tp1357
sI1361
(I31104
I31136
tp1358
sI1362
(I31136
I31164
tp1359
sI1363
(I31164
I31199
tp1360
sI1364
(I31199
I31220
tp1361
sI1365
(I31220
I31239
tp1362
sI1366
(I31239
I31257
tp1363
sI1367
(I31257
I31261
tp1364
sI1368
(I31261
I31271
tp1365
sI1369
(I31271
I31299
tp1366
sI1370
(I31299
I31321
tp1367
sI1371
(I31321
I31355
tp1368
sI1372
(I31355
I31375
tp1369
sI1373
(I31375
I31394
tp1370
sI1374
(I31394
I31418
tp1371
sI1375
(I31418
I31448
tp1372
sI1376
(I31448
I31459
tp1373
sI1377
(I31459
I31480
tp1374
sI1378
(I31480
I31516
tp1375
sI1379
(I31516
I31535
tp1376
sI1380
(I31535
I31566
tp1377
sI1381
(I31566
I31581
tp1378
sI1382
(I31581
I31604
tp1379
sI1383
(I31604
I31628
tp1380
sI1384
(I31628
I31655
tp1381
sI1385
(I31655
I31680
tp1382
sI1386
(I31680
I31704
tp1383
sI1387
(I31704
I31722
tp1384
sI1388
(I31722
I31754
tp1385
sI1389
(I31754
I31791
tp1386
sI1390
(I31791
I31809
tp1387
sI1391
(I31809
I31834
tp1388
sI1392
(I31834
I31860
tp1389
sI1393
(I31860
I31889
tp1390
sI1394
(I31889
I31912
tp1391
sI1395
(I31912
I31937
tp1392
sI1396
(I31937
I31952
tp1393
sI1397
(I31952
I31963
tp1394
sI1398
(I31963
I32000
tp1395
sI1399
(I32000
I32022
tp1396
sI1400
(I32022
I32046
tp1397
sI1401
(I32046
I32077
tp1398
sI1402
(I32077
I32098
tp1399
sI1403
(I32098
I32128
tp1400
sI1404
(I32128
I32161
tp1401
sI1405
(I32161
I32180
tp1402
sI1406
(I32180
I32199
tp1403
sI1407
(I32199
I32228
tp1404
sI1408
(I32228
I32257
tp1405
sI1409
(I32257
I32276
tp1406
sI1410
(I32276
I32289
tp1407
sI1411
(I32289
I32323
tp1408
sI1412
(I32323
I32350
tp1409
sI1413
(I32350
I32382
tp1410
sI1414
(I32382
I32399
tp1411
sI1415
(I32399
I32437
tp1412
sI1416
(I32437
I32448
tp1413
sI1417
(I32448
I32485
tp1414
sI1418
(I32485
I32523
tp1415
sI1419
(I32523
I32541
tp1416
sI1420
(I32541
I32559
tp1417
sI1421
(I32559
I32571
tp1418
sI1422
(I32571
I32619
tp1419
sI1423
(I32619
I32642
tp1420
sI1424
(I32642
I32671
tp1421
sI1425
(I32671
I32688
tp1422
sI1426
(I32688
I32697
tp1423
sI1427
(I32697
I32726
tp1424
sI1428
(I32726
I32737
tp1425
sI1429
(I32737
I32750
tp1426
sI1430
(I32750
I32766
tp1427
sI1431
(I32766
I32774
tp1428
sI1432
(I32774
I32792
tp1429
sI1433
(I32792
I32807
tp1430
sI1434
(I32807
I32838
tp1431
sI1435
(I32838
I32864
tp1432
sI1436
(I32864
I32887
tp1433
sI1437
(I32887
I32899
tp1434
sI1438
(I32899
I32918
tp1435
sI1439
(I32918
I32945
tp1436
sI1440
(I32945
I32977
tp1437
sI1441
(I32977
I32993
tp1438
sI1442
(I32993
I33001
tp1439
sI1443
(I33001
I33032
tp1440
sI1444
(I33032
I33054
tp1441
sI1445
(I33054
I33076
tp1442
sI1446
(I33076
I33098
tp1443
sI1447
(I33098
I33121
tp1444
sI1448
(I33121
I33140
tp1445
sI1449
(I33140
I33166
tp1446
sI1450
(I33166
I33187
tp1447
sI1451
(I33187
I33217
tp1448
sI1452
(I33217
I33252
tp1449
sI1453
(I33252
I33284
tp1450
sI1454
(I33284
I33319
tp1451
sI1455
(I33319
I33344
tp1452
sI1456
(I33344
I33383
tp1453
sI1457
(I33383
I33396
tp1454
sI1458
(I33396
I33417
tp1455
sI1459
(I33417
I33438
tp1456
sI1460
(I33438
I33462
tp1457
sI1461
(I33462
I33475
tp1458
sI1462
(I33475
I33486
tp1459
sI1463
(I33486
I33502
tp1460
sI1464
(I33502
I33529
tp1461
sI1465
(I33529
I33555
tp1462
sI1466
(I33555
I33575
tp1463
sI1467
(I33575
I33598
tp1464
sI1468
(I33598
I33628
tp1465
sI1469
(I33628
I33660
tp1466
sI1470
(I33660
I33683
tp1467
sI1471
(I33683
I33709
tp1468
sI1472
(I33709
I33721
tp1469
sI1473
(I33721
I33729
tp1470
sI1474
(I33729
I33733
tp1471
sI1475
(I33733
I33750
tp1472
sI1476
(I33750
I33773
tp1473
sI1477
(I33773
I33778
tp1474
sI1478
(I33778
I33802
tp1475
sI1479
(I33802
I33815
tp1476
sI1480
(I33815
I33835
tp1477
sI1481
(I33835
I33848
tp1478
sI1482
(I33848
I33858
tp1479
sI1483
(I33858
I33866
tp1480
sI1484
(I33866
I33888
tp1481
sI1485
(I33888
I33900
tp1482
sI1486
(I33900
I33927
tp1483
sI1487
(I33927
I33947
tp1484
sI1488
(I33947
I33961
tp1485
sI1489
(I33961
I33992
tp1486
sI1490
(I33992
I34001
tp1487
sI1491
(I34001
I34035
tp1488
sI1492
(I34035
I34043
tp1489
sI1493
(I34043
I34067
tp1490
sI1494
(I34067
I34090
tp1491
sI1495
(I34090
I34098
tp1492
sI1496
(I34098
I34106
tp1493
sI1497
(I34106
I34124
tp1494
sI1498
(I34124
I34138
tp1495
sI1499
(I34138
I34160
tp1496
sI1500
(I34160
I34180
tp1497
sI1501
(I34180
I34209
tp1498
sI1502
(I34209
I34252
tp1499
sI1503
(I34252
I34277
tp1500
sI1504
(I34277
I34296
tp1501
sI1505
(I34296
I34320
tp1502
sI1506
(I34320
I34336
tp1503
sI1507
(I34336
I34350
tp1504
sI1508
(I34350
I34367
tp1505
sI1509
(I34367
I34377
tp1506
sI1510
(I34377
I34397
tp1507
sI1511
(I34397
I34409
tp1508
sI1512
(I34409
I34432
tp1509
sI1513
(I34432
I34437
tp1510
sI1514
(I34437
I34453
tp1511
sI1515
(I34453
I34490
tp1512
sI1516
(I34490
I34506
tp1513
sI1517
(I34506
I34534
tp1514
sI1518
(I34534
I34570
tp1515
sI1519
(I34570
I34580
tp1516
sI1520
(I34580
I34610
tp1517
sI1521
(I34610
I34629
tp1518
sI1522
(I34629
I34663
tp1519
sI1523
(I34663
I34668
tp1520
sI1524
(I34668
I34680
tp1521
sI1525
(I34680
I34696
tp1522
sI1526
(I34696
I34724
tp1523
sI1527
(I34724
I34745
tp1524
sI1528
(I34745
I34750
tp1525
sI1529
(I34750
I34767
tp1526
sI1530
(I34767
I34790
tp1527
sI1531
(I34790
I34815
tp1528
sI1532
(I34815
I34833
tp1529
sI1533
(I34833
I34838
tp1530
sI1534
(I34838
I34867
tp1531
sI1535
(I34867
I34873
tp1532
sI1536
(I34873
I34877
tp1533
sI1537
(I34877
I34890
tp1534
sI1538
(I34890
I34923
tp1535
sI1539
(I34923
I34939
tp1536
sI1540
(I34939
I34958
tp1537
sI1541
(I34958
I34983
tp1538
sI1542
(I34983
I35009
tp1539
sI1543
(I35009
I35029
tp1540
sI1544
(I35029
I35052
tp1541
sI1545
(I35052
I35064
tp1542
sI1546
(I35064
I35095
tp1543
sI1547
(I35095
I35114
tp1544
sI1548
(I35114
I35127
tp1545
sI1549
(I35127
I35136
tp1546
sI1550
(I35136
I35160
tp1547
sI1551
(I35160
I35200
tp1548
sI1552
(I35200
I35212
tp1549
sI1553
(I35212
I35232
tp1550
sI1554
(I35232
I35252
tp1551
sI1555
(I35252
I35254
tp1552
sI1556
(I35254
I35277
tp1553
sI1557
(I35277
I35300
tp1554
sI1558
(I35300
I35327
tp1555
sI1559
(I35327
I35339
tp1556
sI1560
(I35339
I35372
tp1557
sI1561
(I35372
I35400
tp1558
sI1562
(I35400
I35406
tp1559
sI1563
(I35406
I35417
tp1560
sI1564
(I35417
I35441
tp1561
sI1565
(I35441
I35471
tp1562
sI1566
(I35471
I35488
tp1563
sI1567
(I35488
I35511
tp1564
sI1568
(I35511
I35522
tp1565
sI1569
(I35522
I35529
tp1566
sI1570
(I35529
I35550
tp1567
sI1571
(I35550
I35560
tp1568
sI1572
(I35560
I35584
tp1569
sI1573
(I35584
I35614
tp1570
sI1574
(I35614
I35651
tp1571
sI1575
(I35651
I35678
tp1572
sI1576
(I35678
I35709
tp1573
sI1577
(I35709
I35724
tp1574
sI1578
(I35724
I35731
tp1575
sI1579
(I35731
I35744
tp1576
sI1580
(I35744
I35759
tp1577
sI1581
(I35759
I35786
tp1578
sI1582
(I35786
I35820
tp1579
sI1583
(I35820
I35833
tp1580
sI1584
(I35833
I35852
tp1581
sI1585
(I35852
I35891
tp1582
sI1586
(I35891
I35904
tp1583
sI1587
(I35904
I35930
tp1584
sI1588
(I35930
I35960
tp1585
sI1589
(I35960
I35987
tp1586
sI1590
(I35987
I36021
tp1587
sI1591
(I36021
I36047
tp1588
sI1592
(I36047
I36052
tp1589
sI1593
(I36052
I36078
tp1590
sI1594
(I36078
I36098
tp1591
sI1595
(I36098
I36121
tp1592
sI1596
(I36121
I36152
tp1593
sI1597
(I36152
I36186
tp1594
sI1598
(I36186
I36221
tp1595
sI1599
(I36221
I36244
tp1596
sI1600
(I36244
I36263
tp1597
sI1601
(I36263
I36276
tp1598
sI1602
(I36276
I36304
tp1599
sI1603
(I36304
I36325
tp1600
sI1604
(I36325
I36343
tp1601
sI1605
(I36343
I36353
tp1602
sI1606
(I36353
I36370
tp1603
sI1607
(I36370
I36403
tp1604
sI1608
(I36403
I36418
tp1605
sI1609
(I36418
I36436
tp1606
sI1610
(I36436
I36477
tp1607
sI1611
(I36477
I36499
tp1608
sI1612
(I36499
I36523
tp1609
sI1613
(I36523
I36539
tp1610
sI1614
(I36539
I36566
tp1611
sI1615
(I36566
I36581
tp1612
sI1616
(I36581
I36609
tp1613
sI1617
(I36609
I36629
tp1614
sI1618
(I36629
I36642
tp1615
sI1619
(I36642
I36660
tp1616
sI1620
(I36660
I36673
tp1617
sI1621
(I36673
I36692
tp1618
sI1622
(I36692
I36728
tp1619
sI1623
(I36728
I36752
tp1620
sI1624
(I36752
I36779
tp1621
sI1625
(I36779
I36796
tp1622
sI1626
(I36796
I36829
tp1623
sI1627
(I36829
I36847
tp1624
sI1628
(I36847
I36882
tp1625
sI1629
(I36882
I36913
tp1626
sI1630
(I36913
I36939
tp1627
sI1631
(I36939
I36960
tp1628
sI1632
(I36960
I36994
tp1629
sI1633
(I36994
I37008
tp1630
sI1634
(I37008
I37024
tp1631
sI1635
(I37024
I37041
tp1632
sI1636
(I37041
I37054
tp1633
sI1637
(I37054
I37073
tp1634
sI1638
(I37073
I37090
tp1635
sI1639
(I37090
I37113
tp1636
sI1640
(I37113
I37134
tp1637
sI1641
(I37134
I37154
tp1638
sI1642
(I37154
I37171
tp1639
sI1643
(I37171
I37210
tp1640
sI1644
(I37210
I37231
tp1641
sI1645
(I37231
I37266
tp1642
sI1646
(I37266
I37293
tp1643
sI1647
(I37293
I37310
tp1644
sI1648
(I37310
I37340
tp1645
sI1649
(I37340
I37361
tp1646
sI1650
(I37361
I37379
tp1647
sI1651
(I37379
I37416
tp1648
sI1652
(I37416
I37432
tp1649
sI1653
(I37432
I37450
tp1650
sI1654
(I37450
I37480
tp1651
sI1655
(I37480
I37499
tp1652
sI1656
(I37499
I37517
tp1653
sI1657
(I37517
I37529
tp1654
sI1658
(I37529
I37552
tp1655
sI1659
(I37552
I37572
tp1656
sI1660
(I37572
I37600
tp1657
sI1661
(I37600
I37630
tp1658
sI1662
(I37630
I37645
tp1659
sI1663
(I37645
I37668
tp1660
sI1664
(I37668
I37700
tp1661
sI1665
(I37700
I37737
tp1662
sI1666
(I37737
I37769
tp1663
sI1667
(I37769
I37788
tp1664
sI1668
(I37788
I37821
tp1665
sI1669
(I37821
I37861
tp1666
sI1670
(I37861
I37890
tp1667
sI1671
(I37890
I37927
tp1668
sI1672
(I37927
I37940
tp1669
sI1673
(I37940
I37948
tp1670
sI1674
(I37948
I37980
tp1671
sI1675
(I37980
I38011
tp1672
sI1676
(I38011
I38027
tp1673
sI1677
(I38027
I38077
tp1674
sI1678
(I38077
I38091
tp1675
sI1679
(I38091
I38127
tp1676
sI1680
(I38127
I38132
tp1677
sI1681
(I38132
I38145
tp1678
sI1682
(I38145
I38171
tp1679
sI1683
(I38171
I38189
tp1680
sI1684
(I38189
I38209
tp1681
sI1685
(I38209
I38232
tp1682
sI1686
(I38232
I38238
tp1683
sI1687
(I38238
I38278
tp1684
sI1688
(I38278
I38301
tp1685
sI1689
(I38301
I38323
tp1686
sI1690
(I38323
I38342
tp1687
sI1691
(I38342
I38364
tp1688
sI1692
(I38364
I38391
tp1689
sI1693
(I38391
I38412
tp1690
sI1694
(I38412
I38446
tp1691
sI1695
(I38446
I38477
tp1692
sI1696
(I38477
I38494
tp1693
sI1697
(I38494
I38521
tp1694
sI1698
(I38521
I38543
tp1695
sI1699
(I38543
I38565
tp1696
sI1700
(I38565
I38595
tp1697
sI1701
(I38595
I38612
tp1698
sI1702
(I38612
I38628
tp1699
sI1703
(I38628
I38654
tp1700
sI1704
(I38654
I38677
tp1701
sI1705
(I38677
I38707
tp1702
sI1706
(I38707
I38721
tp1703
sI1707
(I38721
I38737
tp1704
sI1708
(I38737
I38743
tp1705
sI1709
(I38743
I38782
tp1706
sI1710
(I38782
I38805
tp1707
sI1711
(I38805
I38818
tp1708
sI1712
(I38818
I38843
tp1709
sI1713
(I38843
I38870
tp1710
sI1714
(I38870
I38883
tp1711
sI1715
(I38883
I38914
tp1712
sI1716
(I38914
I38921
tp1713
sI1717
(I38921
I38951
tp1714
sI1718
(I38951
I38970
tp1715
sI1719
(I38970
I38992
tp1716
sI1720
(I38992
I39014
tp1717
sI1721
(I39014
I39031
tp1718
sI1722
(I39031
I39067
tp1719
sI1723
(I39067
I39096
tp1720
sI1724
(I39096
I39123
tp1721
sI1725
(I39123
I39151
tp1722
sI1726
(I39151
I39172
tp1723
sI1727
(I39172
I39195
tp1724
sI1728
(I39195
I39218
tp1725
sI1729
(I39218
I39237
tp1726
sI1730
(I39237
I39263
tp1727
sI1731
(I39263
I39291
tp1728
sI1732
(I39291
I39311
tp1729
sI1733
(I39311
I39326
tp1730
sI1734
(I39326
I39348
tp1731
sI1735
(I39348
I39365
tp1732
sI1736
(I39365
I39408
tp1733
sI1737
(I39408
I39436
tp1734
sI1738
(I39436
I39447
tp1735
sI1739
(I39447
I39476
tp1736
sI1740
(I39476
I39506
tp1737
sI1741
(I39506
I39531
tp1738
sI1742
(I39531
I39542
tp1739
sI1743
(I39542
I39575
tp1740
sI1744
(I39575
I39606
tp1741
sI1745
(I39606
I39630
tp1742
sI1746
(I39630
I39653
tp1743
sI1747
(I39653
I39676
tp1744
sI1748
(I39676
I39695
tp1745
sI1749
(I39695
I39701
tp1746
sI1750
(I39701
I39723
tp1747
sI1751
(I39723
I39743
tp1748
sI1752
(I39743
I39769
tp1749
sI1753
(I39769
I39779
tp1750
sI1754
(I39779
I39821
tp1751
sI1755
(I39821
I39849
tp1752
sI1756
(I39849
I39877
tp1753
sI1757
(I39877
I39887
tp1754
sI1758
(I39887
I39925
tp1755
sI1759
(I39925
I39948
tp1756
sI1760
(I39948
I39993
tp1757
sI1761
(I39993
I40014
tp1758
sI1762
(I40014
I40031
tp1759
sI1763
(I40031
I40064
tp1760
sI1764
(I40064
I40088
tp1761
sI1765
(I40088
I40094
tp1762
sI1766
(I40094
I40124
tp1763
sI1767
(I40124
I40149
tp1764
sI1768
(I40149
I40161
tp1765
sI1769
(I40161
I40181
tp1766
sI1770
(I40181
I40203
tp1767
sI1771
(I40203
I40229
tp1768
sI1772
(I40229
I40262
tp1769
sI1773
(I40262
I40280
tp1770
sI1774
(I40280
I40303
tp1771
sI1775
(I40303
I40321
tp1772
sI1776
(I40321
I40340
tp1773
sI1777
(I40340
I40370
tp1774
sI1778
(I40370
I40374
tp1775
sI1779
(I40374
I40405
tp1776
sI1780
(I40405
I40432
tp1777
sI1781
(I40432
I40456
tp1778
sI1782
(I40456
I40479
tp1779
sI1783
(I40479
I40500
tp1780
sI1784
(I40500
I40518
tp1781
sI1785
(I40518
I40536
tp1782
sI1786
(I40536
I40537
tp1783
sI1787
(I40537
I40555
tp1784
s.